target datalayout = "e-m:e-p270:32:32-p271:32:32-p272:64:64-i64:64-i128:128-f80:128-n8:16:32:64-S128"
target triple = "x86_64-pc-linux-gnu"

%struct.DecodedFrames = type { ptr, i64, i64 }
%struct.AVCodecContext = type { ptr, i32, i32, ptr, i32, i32, ptr, ptr, ptr, i64, i32, i32, ptr, i32, %struct.AVRational, %struct.AVRational, %struct.AVRational, i32, i32, i32, i32, i32, %struct.AVRational, i32, i32, i32, i32, i32, i32, i32, i32, i32, i32, i32, ptr, ptr, i32, float, float, float, float, float, float, float, float, float, i32, i32, i32, i32, i32, i32, i32, i32, i32, i32, i32, i32, ptr, ptr, ptr, i32, i32, i32, i32, i32, i32, i32, i32, i32, i32, %struct.AVChannelLayout, i32, i32, i32, i32, i32, i32, i32, i32, ptr, i32, i32, i32, float, float, i32, i32, i32, i32, i32, ptr, i64, i64, float, float, i32, i32, ptr, ptr, i32, i32, i32, i32, i32, ptr, ptr, ptr, ptr, i32, i32, [8 x i64], i32, i32, i32, i32, i32, i32, i32, ptr, ptr, i32, i32, i32, i32, i32, i32, i32, i32, i32, i32, ptr, ptr, i32, i32, ptr, ptr, ptr, ptr, i32, i32, i64, i32, i32, i64, ptr, i64, ptr, i32, ptr, i32 }
%struct.AVRational = type { i32, i32 }
%struct.AVChannelLayout = type { i32, i32, %union.anon, ptr }
%union.anon = type { i64 }
%struct.AVCodecInternal = type { i32, i32, i32, ptr, ptr, ptr, ptr, ptr, ptr, ptr, i32, ptr, ptr, ptr, i32, i32, ptr, i32, ptr, ptr, i32, i32 }
%struct.FrameThreadContext = type { ptr, ptr, i32, %union.pthread_mutex_t, %union.pthread_mutex_t, %union.pthread_mutex_t, %union.pthread_cond_t, i32, %struct.DecodedFrames, i32, ptr, i32, i32, ptr, ptr, ptr }
%union.pthread_mutex_t = type { %struct.__pthread_mutex_s }
%struct.__pthread_mutex_s = type { i32, i32, i32, i32, i32, i16, i16, %struct.__pthread_internal_list }
%struct.__pthread_internal_list = type { ptr, ptr }
%union.pthread_cond_t = type { %struct.__pthread_cond_s }
%struct.__pthread_cond_s = type { %union.__atomic_wide_counter, %union.__atomic_wide_counter, [2 x i32], [2 x i32], i32, i32, [2 x i32] }
%union.__atomic_wide_counter = type { i64 }
%struct.PerThreadContext = type { ptr, i64, i32, i32, %union.pthread_cond_t, %union.pthread_cond_t, %union.pthread_cond_t, %union.pthread_mutex_t, %union.pthread_mutex_t, ptr, ptr, %struct.DecodedFrames, i32, i32, i32, i32, i32, i32, i32, i32, i32 }

; Function Attrs: cold nounwind optsize uwtable
define void @ff_thread_flush(ptr noundef %0) #7 {
  %2 = alloca ptr, align 8
  %3 = alloca i32, align 4
  %4 = alloca ptr, align 8
  %5 = alloca i32, align 4
  %6 = alloca ptr, align 8
  store ptr %0, ptr %2, align 8, !tbaa !4
  call void @llvm.lifetime.start.p0(i64 4, ptr %3) #9
  call void @llvm.lifetime.start.p0(i64 8, ptr %4) #9
  %7 = load ptr, ptr %2, align 8, !tbaa !4
  %8 = getelementptr inbounds nuw %struct.AVCodecContext, ptr %7, i32 0, i32 7
  %9 = load ptr, ptr %8, align 8, !tbaa !11
  %10 = getelementptr inbounds nuw %struct.AVCodecInternal, ptr %9, i32 0, i32 5
  %11 = load ptr, ptr %10, align 8, !tbaa !31
  store ptr %11, ptr %4, align 8, !tbaa !37
  %12 = load ptr, ptr %4, align 8, !tbaa !37
  %13 = icmp ne ptr %12, null
  br i1 %13, label %15, label %14

14:                                               ; preds = %1
  store i32 1, ptr %5, align 4
  br label %82

15:                                               ; preds = %1
  %16 = load ptr, ptr %4, align 8, !tbaa !37
  %17 = load ptr, ptr %2, align 8, !tbaa !4
  %18 = getelementptr inbounds nuw %struct.AVCodecContext, ptr %17, i32 0, i32 116
  %19 = load i32, ptr %18, align 8, !tbaa !54
  call void @park_frame_worker_threads(ptr noundef %16, i32 noundef %19) #11
  %20 = load ptr, ptr %4, align 8, !tbaa !37
  %21 = getelementptr inbounds nuw %struct.FrameThreadContext, ptr %20, i32 0, i32 1
  %22 = load ptr, ptr %21, align 8, !tbaa !66
  %23 = icmp ne ptr %22, null
  br i1 %23, label %24, label %47

24:                                               ; preds = %15
  %25 = load ptr, ptr %4, align 8, !tbaa !37
  %26 = getelementptr inbounds nuw %struct.FrameThreadContext, ptr %25, i32 0, i32 1
  %27 = load ptr, ptr %26, align 8, !tbaa !66
  %28 = load ptr, ptr %4, align 8, !tbaa !37
  %29 = getelementptr inbounds nuw %struct.FrameThreadContext, ptr %28, i32 0, i32 0
  %30 = load ptr, ptr %29, align 8, !tbaa !47
  %31 = getelementptr inbounds %struct.PerThreadContext, ptr %30, i64 0
  %32 = icmp ne ptr %27, %31
  br i1 %32, label %33, label %46

33:                                               ; preds = %24
  %34 = load ptr, ptr %4, align 8, !tbaa !37
  %35 = getelementptr inbounds nuw %struct.FrameThreadContext, ptr %34, i32 0, i32 0
  %36 = load ptr, ptr %35, align 8, !tbaa !47
  %37 = getelementptr inbounds %struct.PerThreadContext, ptr %36, i64 0
  %38 = getelementptr inbounds nuw %struct.PerThreadContext, ptr %37, i32 0, i32 9
  %39 = load ptr, ptr %38, align 8, !tbaa !56
  %40 = load ptr, ptr %4, align 8, !tbaa !37
  %41 = getelementptr inbounds nuw %struct.FrameThreadContext, ptr %40, i32 0, i32 1
  %42 = load ptr, ptr %41, align 8, !tbaa !66
  %43 = getelementptr inbounds nuw %struct.PerThreadContext, ptr %42, i32 0, i32 9
  %44 = load ptr, ptr %43, align 8, !tbaa !56
  %45 = call i32 @update_context_from_thread(ptr noundef %39, ptr noundef %44, i32 noundef 0)
  br label %46

46:                                               ; preds = %33, %24
  br label %47

47:                                               ; preds = %46, %15
  %48 = load ptr, ptr %4, align 8, !tbaa !37
  %49 = getelementptr inbounds nuw %struct.FrameThreadContext, ptr %48, i32 0, i32 12
  store i32 0, ptr %49, align 4, !tbaa !49
  %50 = load ptr, ptr %4, align 8, !tbaa !37
  %51 = getelementptr inbounds nuw %struct.FrameThreadContext, ptr %50, i32 0, i32 11
  store i32 0, ptr %51, align 8, !tbaa !48
  %52 = load ptr, ptr %4, align 8, !tbaa !37
  %53 = getelementptr inbounds nuw %struct.FrameThreadContext, ptr %52, i32 0, i32 1
  store ptr null, ptr %53, align 8, !tbaa !66
  %54 = load ptr, ptr %4, align 8, !tbaa !37
  %55 = getelementptr inbounds nuw %struct.FrameThreadContext, ptr %54, i32 0, i32 8
  call void @decoded_frames_flush(ptr noundef %55)
  %56 = load ptr, ptr %4, align 8, !tbaa !37
  %57 = getelementptr inbounds nuw %struct.FrameThreadContext, ptr %56, i32 0, i32 9
  store i32 0, ptr %57, align 8, !tbaa !45
  store i32 0, ptr %3, align 4, !tbaa !39
  br label %58

58:                                               ; preds = %78, %47
  %59 = load i32, ptr %3, align 4, !tbaa !39
  %60 = load ptr, ptr %2, align 8, !tbaa !4
  %61 = getelementptr inbounds nuw %struct.AVCodecContext, ptr %60, i32 0, i32 116
  %62 = load i32, ptr %61, align 8, !tbaa !54
  %63 = icmp slt i32 %59, %62
  br i1 %63, label %64, label %81

64:                                               ; preds = %58
  call void @llvm.lifetime.start.p0(i64 8, ptr %6) #9
  %65 = load ptr, ptr %4, align 8, !tbaa !37
  %66 = getelementptr inbounds nuw %struct.FrameThreadContext, ptr %65, i32 0, i32 0
  %67 = load ptr, ptr %66, align 8, !tbaa !47
  %68 = load i32, ptr %3, align 4, !tbaa !39
  %69 = sext i32 %68 to i64
  %70 = getelementptr inbounds %struct.PerThreadContext, ptr %67, i64 %69
  store ptr %70, ptr %6, align 8, !tbaa !53
  %71 = load ptr, ptr %6, align 8, !tbaa !53
  %72 = getelementptr inbounds nuw %struct.PerThreadContext, ptr %71, i32 0, i32 11
  call void @decoded_frames_flush(ptr noundef %72)
  %73 = load ptr, ptr %6, align 8, !tbaa !53
  %74 = getelementptr inbounds nuw %struct.PerThreadContext, ptr %73, i32 0, i32 12
  store i32 0, ptr %74, align 8, !tbaa !58
  %75 = load ptr, ptr %6, align 8, !tbaa !53
  %76 = getelementptr inbounds nuw %struct.PerThreadContext, ptr %75, i32 0, i32 9
  %77 = load ptr, ptr %76, align 8, !tbaa !56
  call void @avcodec_flush_buffers(ptr noundef %77)
  call void @llvm.lifetime.end.p0(i64 8, ptr %6) #9
  br label %78

78:                                               ; preds = %64
  %79 = load i32, ptr %3, align 4, !tbaa !39
  %80 = add nsw i32 %79, 1
  store i32 %80, ptr %3, align 4, !tbaa !39
  br label %58, !llvm.loop !180

81:                                               ; preds = %58
  store i32 0, ptr %5, align 4
  br label %82

82:                                               ; preds = %81, %14
  call void @llvm.lifetime.end.p0(i64 8, ptr %4) #9
  call void @llvm.lifetime.end.p0(i64 4, ptr %3) #9
  %83 = load i32, ptr %5, align 4
  switch i32 %83, label %85 [
    i32 0, label %84
    i32 1, label %84
  ]

84:                                               ; preds = %82, %82
  ret void

85:                                               ; preds = %82
  unreachable
}