; Function Attrs: cold nounwind optsize uwtable
define void @ff_thread_flush(ptr noundef readonly captures(none) %0) local_unnamed_addr #6 {
  %2 = getelementptr inbounds nuw i8, ptr %0, i64 40
  %3 = load ptr, ptr %2, align 8, !tbaa !4
  %4 = getelementptr inbounds nuw i8, ptr %3, i64 32
  %5 = load ptr, ptr %4, align 8, !tbaa !27
  %.not = icmp eq ptr %5, null
  br i1 %.not, label %.loopexit, label %6

6:                                                ; preds = %1
  %7 = getelementptr inbounds nuw i8, ptr %0, i64 656
  %8 = load i32, ptr %7, align 8, !tbaa !83
  tail call fastcc void @park_frame_worker_threads(ptr noundef nonnull %5, i32 noundef %8) #13
  %9 = getelementptr inbounds nuw i8, ptr %5, i64 8
  %10 = load ptr, ptr %9, align 8, !tbaa !48
  %.not24 = icmp eq ptr %10, null
  br i1 %.not24, label %19, label %11

11:                                               ; preds = %6
  %12 = load ptr, ptr %5, align 8, !tbaa !42
  %.not25 = icmp eq ptr %10, %12
  br i1 %.not25, label %19, label %13

13:                                               ; preds = %11
  %14 = getelementptr inbounds nuw i8, ptr %12, i64 248
  %15 = load ptr, ptr %14, align 8, !tbaa !49
  %16 = getelementptr inbounds nuw i8, ptr %10, i64 248
  %17 = load ptr, ptr %16, align 8, !tbaa !49
  %18 = tail call fastcc i32 @update_context_from_thread(ptr noundef %15, ptr noundef %17, i32 noundef 0)
  br label %19

19:                                               ; preds = %11, %13, %6
  %20 = getelementptr inbounds nuw i8, ptr %5, i64 244
  store i32 0, ptr %20, align 4, !tbaa !84
  %21 = getelementptr inbounds nuw i8, ptr %5, i64 240
  store i32 0, ptr %21, align 8, !tbaa !43
  store ptr null, ptr %9, align 8, !tbaa !48
  %22 = getelementptr inbounds nuw i8, ptr %5, i64 200
  tail call fastcc void @decoded_frames_flush(ptr noundef nonnull %22)
  %23 = getelementptr inbounds nuw i8, ptr %5, i64 224
  store i32 0, ptr %23, align 8, !tbaa !40
  %24 = load i32, ptr %7, align 8, !tbaa !83
  %25 = icmp sgt i32 %24, 0
  br i1 %25, label %.lr.ph, label %.loopexit

.lr.ph:                                           ; preds = %19, %.lr.ph
  %indvars.iv = phi i64 [ %indvars.iv.next, %.lr.ph ], [ 0, %19 ]
  %26 = load ptr, ptr %5, align 8, !tbaa !42
  %27 = getelementptr inbounds nuw %struct.PerThreadContext, ptr %26, i64 %indvars.iv
  %28 = getelementptr inbounds nuw i8, ptr %27, i64 264
  tail call fastcc void @decoded_frames_flush(ptr noundef nonnull %28)
  %29 = getelementptr inbounds nuw i8, ptr %27, i64 288
  store i32 0, ptr %29, align 8, !tbaa !87
  %30 = getelementptr inbounds nuw i8, ptr %27, i64 248
  %31 = load ptr, ptr %30, align 8, !tbaa !49
  tail call void @avcodec_flush_buffers(ptr noundef %31) #11
  %indvars.iv.next = add nuw nsw i64 %indvars.iv, 1
  %32 = load i32, ptr %7, align 8, !tbaa !83
  %33 = sext i32 %32 to i64
  %34 = icmp slt i64 %indvars.iv.next, %33
  br i1 %34, label %.lr.ph, label %.loopexit, !llvm.loop !174

.loopexit:                                        ; preds = %.lr.ph, %19, %1
  ret void
}